target datalayout = "e-m:e-p270:32:32-p271:32:32-p272:64:64-i64:64-i128:128-f80:128-n8:16:32:64-S128"
target triple = "x86_64-pc-linux-gnu"

%struct._Node = type { %union.anon.35 }
%union.anon.35 = type { %struct.BagNode }
%struct.BagNode = type { i32, i32, ptr, ptr, i32, %union.anon.37, i32, i32, i32, i32, i32 }
%union.anon.37 = type { %struct.anon.40 }
%struct.anon.40 = type { ptr, ptr }
%struct.anon.36 = type { i32, i32, ptr, ptr }
%struct.ConsAltNode = type { i32, i32, ptr, ptr, ptr }
%struct.StrNode = type { i32, i32, ptr, ptr, ptr, i32, [24 x i8], i32 }
%struct.CtypeNode = type { i32, i32, ptr, i32, i32, i32 }
%struct.QuantNode = type { i32, i32, ptr, ptr, i32, i32, i32, i32, ptr, ptr, i32, i32 }
%struct.AnchorNode = type { i32, i32, ptr, ptr, i32, i32, i32, i32, ptr }

; Function Attrs: nounwind uwtable
define internal ptr @get_tree_head_literal(ptr noundef %0, i32 noundef %1, ptr noundef %2) #0 {
  %4 = alloca ptr, align 8
  %5 = alloca i32, align 4
  %6 = alloca ptr, align 8
  %7 = alloca ptr, align 8
  %8 = alloca ptr, align 8
  %9 = alloca i32, align 4
  %10 = alloca ptr, align 8
  %11 = alloca ptr, align 8
  store ptr %0, ptr %4, align 8, !tbaa !47
  store i32 %1, ptr %5, align 4, !tbaa !4
  store ptr %2, ptr %6, align 8, !tbaa !8
  call void @llvm.lifetime.start.p0(i64 8, ptr %7) #9
  store ptr null, ptr %7, align 8, !tbaa !47
  %12 = load ptr, ptr %4, align 8, !tbaa !47
  %13 = getelementptr inbounds nuw %struct._Node, ptr %12, i32 0, i32 0
  %14 = getelementptr inbounds nuw %struct.anon.36, ptr %13, i32 0, i32 0
  %15 = load i32, ptr %14, align 8, !tbaa !32
  switch i32 %15, label %131 [
    i32 3, label %16
    i32 8, label %16
    i32 9, label %16
    i32 2, label %17
    i32 1, label %25
    i32 7, label %31
    i32 0, label %39
    i32 4, label %73
    i32 5, label %99
    i32 6, label %115
    i32 10, label %130
  ]

16:                                               ; preds = %3, %3, %3
  br label %132

17:                                               ; preds = %3
  %18 = load ptr, ptr %4, align 8, !tbaa !47
  %19 = getelementptr inbounds nuw %struct._Node, ptr %18, i32 0, i32 0
  %20 = getelementptr inbounds nuw %struct.CtypeNode, ptr %19, i32 0, i32 3
  %21 = load i32, ptr %20, align 8, !tbaa !32
  %22 = icmp eq i32 %21, -1
  br i1 %22, label %23, label %24

23:                                               ; preds = %17
  br label %132

24:                                               ; preds = %17
  br label %25

25:                                               ; preds = %3, %24
  %26 = load i32, ptr %5, align 4, !tbaa !4
  %27 = icmp eq i32 %26, 0
  br i1 %27, label %28, label %30

28:                                               ; preds = %25
  %29 = load ptr, ptr %4, align 8, !tbaa !47
  store ptr %29, ptr %7, align 8, !tbaa !47
  br label %30

30:                                               ; preds = %28, %25
  br label %132

31:                                               ; preds = %3
  %32 = load ptr, ptr %4, align 8, !tbaa !47
  %33 = getelementptr inbounds nuw %struct._Node, ptr %32, i32 0, i32 0
  %34 = getelementptr inbounds nuw %struct.ConsAltNode, ptr %33, i32 0, i32 3
  %35 = load ptr, ptr %34, align 8, !tbaa !32
  %36 = load i32, ptr %5, align 4, !tbaa !4
  %37 = load ptr, ptr %6, align 8, !tbaa !8
  %38 = call ptr @get_tree_head_literal(ptr noundef %35, i32 noundef %36, ptr noundef %37)
  store ptr %38, ptr %7, align 8, !tbaa !47
  br label %132

39:                                               ; preds = %3
  call void @llvm.lifetime.start.p0(i64 8, ptr %8) #9
  %40 = load ptr, ptr %4, align 8, !tbaa !47
  %41 = getelementptr inbounds nuw %struct._Node, ptr %40, i32 0, i32 0
  store ptr %41, ptr %8, align 8, !tbaa !15
  %42 = load ptr, ptr %8, align 8, !tbaa !15
  %43 = getelementptr inbounds nuw %struct.StrNode, ptr %42, i32 0, i32 4
  %44 = load ptr, ptr %43, align 8, !tbaa !165
  %45 = load ptr, ptr %8, align 8, !tbaa !15
  %46 = getelementptr inbounds nuw %struct.StrNode, ptr %45, i32 0, i32 3
  %47 = load ptr, ptr %46, align 8, !tbaa !163
  %48 = icmp ule ptr %44, %47
  br i1 %48, label %49, label %50

49:                                               ; preds = %39
  store i32 2, ptr %9, align 4
  br label %70

50:                                               ; preds = %39
  %51 = load i32, ptr %5, align 4, !tbaa !4
  %52 = icmp eq i32 %51, 0
  br i1 %52, label %67, label %53

53:                                               ; preds = %50
  %54 = load ptr, ptr %4, align 8, !tbaa !47
  %55 = getelementptr inbounds nuw %struct._Node, ptr %54, i32 0, i32 0
  %56 = getelementptr inbounds nuw %struct.anon.36, ptr %55, i32 0, i32 1
  %57 = load i32, ptr %56, align 4, !tbaa !32
  %58 = and i32 %57, 2097152
  %59 = icmp ne i32 %58, 0
  br i1 %59, label %60, label %67

60:                                               ; preds = %53
  %61 = load ptr, ptr %4, align 8, !tbaa !47
  %62 = getelementptr inbounds nuw %struct._Node, ptr %61, i32 0, i32 0
  %63 = getelementptr inbounds nuw %struct.StrNode, ptr %62, i32 0, i32 5
  %64 = load i32, ptr %63, align 8, !tbaa !32
  %65 = and i32 %64, 1
  %66 = icmp ne i32 %65, 0
  br i1 %66, label %67, label %69

67:                                               ; preds = %60, %53, %50
  %68 = load ptr, ptr %4, align 8, !tbaa !47
  store ptr %68, ptr %7, align 8, !tbaa !47
  br label %69

69:                                               ; preds = %67, %60
  store i32 0, ptr %9, align 4
  br label %70

70:                                               ; preds = %69, %49
  call void @llvm.lifetime.end.p0(i64 8, ptr %8) #9
  %71 = load i32, ptr %9, align 4
  switch i32 %71, label %134 [
    i32 0, label %72
    i32 2, label %132
  ]

72:                                               ; preds = %70
  br label %132

73:                                               ; preds = %3
  call void @llvm.lifetime.start.p0(i64 8, ptr %10) #9
  %74 = load ptr, ptr %4, align 8, !tbaa !47
  %75 = getelementptr inbounds nuw %struct._Node, ptr %74, i32 0, i32 0
  store ptr %75, ptr %10, align 8, !tbaa !15
  %76 = load ptr, ptr %10, align 8, !tbaa !15
  %77 = getelementptr inbounds nuw %struct.QuantNode, ptr %76, i32 0, i32 4
  %78 = load i32, ptr %77, align 8, !tbaa !189
  %79 = icmp sgt i32 %78, 0
  br i1 %79, label %80, label %98

80:                                               ; preds = %73
  %81 = load ptr, ptr %10, align 8, !tbaa !15
  %82 = getelementptr inbounds nuw %struct.QuantNode, ptr %81, i32 0, i32 8
  %83 = load ptr, ptr %82, align 8, !tbaa !228
  %84 = icmp ne ptr %83, null
  br i1 %84, label %85, label %89

85:                                               ; preds = %80
  %86 = load ptr, ptr %10, align 8, !tbaa !15
  %87 = getelementptr inbounds nuw %struct.QuantNode, ptr %86, i32 0, i32 8
  %88 = load ptr, ptr %87, align 8, !tbaa !228
  store ptr %88, ptr %7, align 8, !tbaa !47
  br label %97

89:                                               ; preds = %80
  %90 = load ptr, ptr %4, align 8, !tbaa !47
  %91 = getelementptr inbounds nuw %struct._Node, ptr %90, i32 0, i32 0
  %92 = getelementptr inbounds nuw %struct.anon.36, ptr %91, i32 0, i32 3
  %93 = load ptr, ptr %92, align 8, !tbaa !32
  %94 = load i32, ptr %5, align 4, !tbaa !4
  %95 = load ptr, ptr %6, align 8, !tbaa !8
  %96 = call ptr @get_tree_head_literal(ptr noundef %93, i32 noundef %94, ptr noundef %95)
  store ptr %96, ptr %7, align 8, !tbaa !47
  br label %97

97:                                               ; preds = %89, %85
  br label %98

98:                                               ; preds = %97, %73
  call void @llvm.lifetime.end.p0(i64 8, ptr %10) #9
  br label %132

99:                                               ; preds = %3
  call void @llvm.lifetime.start.p0(i64 8, ptr %11) #9
  %100 = load ptr, ptr %4, align 8, !tbaa !47
  %101 = getelementptr inbounds nuw %struct._Node, ptr %100, i32 0, i32 0
  store ptr %101, ptr %11, align 8, !tbaa !15
  %102 = load ptr, ptr %11, align 8, !tbaa !15
  %103 = getelementptr inbounds nuw %struct.BagNode, ptr %102, i32 0, i32 4
  %104 = load i32, ptr %103, align 8, !tbaa !156
  switch i32 %104, label %113 [
    i32 1, label %105
    i32 0, label %105
    i32 2, label %105
  ]

105:                                              ; preds = %99, %99, %99
  %106 = load ptr, ptr %4, align 8, !tbaa !47
  %107 = getelementptr inbounds nuw %struct._Node, ptr %106, i32 0, i32 0
  %108 = getelementptr inbounds nuw %struct.anon.36, ptr %107, i32 0, i32 3
  %109 = load ptr, ptr %108, align 8, !tbaa !32
  %110 = load i32, ptr %5, align 4, !tbaa !4
  %111 = load ptr, ptr %6, align 8, !tbaa !8
  %112 = call ptr @get_tree_head_literal(ptr noundef %109, i32 noundef %110, ptr noundef %111)
  store ptr %112, ptr %7, align 8, !tbaa !47
  br label %114

113:                                              ; preds = %99
  br label %114

114:                                              ; preds = %113, %105
  call void @llvm.lifetime.end.p0(i64 8, ptr %11) #9
  br label %132

115:                                              ; preds = %3
  %116 = load ptr, ptr %4, align 8, !tbaa !47
  %117 = getelementptr inbounds nuw %struct._Node, ptr %116, i32 0, i32 0
  %118 = getelementptr inbounds nuw %struct.AnchorNode, ptr %117, i32 0, i32 4
  %119 = load i32, ptr %118, align 8, !tbaa !32
  %120 = icmp eq i32 %119, 1
  br i1 %120, label %121, label %129

121:                                              ; preds = %115
  %122 = load ptr, ptr %4, align 8, !tbaa !47
  %123 = getelementptr inbounds nuw %struct._Node, ptr %122, i32 0, i32 0
  %124 = getelementptr inbounds nuw %struct.anon.36, ptr %123, i32 0, i32 3
  %125 = load ptr, ptr %124, align 8, !tbaa !32
  %126 = load i32, ptr %5, align 4, !tbaa !4
  %127 = load ptr, ptr %6, align 8, !tbaa !8
  %128 = call ptr @get_tree_head_literal(ptr noundef %125, i32 noundef %126, ptr noundef %127)
  store ptr %128, ptr %7, align 8, !tbaa !47
  br label %129

129:                                              ; preds = %121, %115
  br label %132

130:                                              ; preds = %3
  br label %131

131:                                              ; preds = %3, %130
  br label %132

132:                                              ; preds = %131, %129, %114, %98, %72, %70, %31, %30, %23, %16
  %133 = load ptr, ptr %7, align 8, !tbaa !47
  store i32 1, ptr %9, align 4
  call void @llvm.lifetime.end.p0(i64 8, ptr %7) #9
  ret ptr %133

134:                                              ; preds = %70
  unreachable
}