; Function Attrs: nofree norecurse nosync nounwind memory(read, inaccessiblemem: none) uwtable
define internal fastcc ptr @get_tree_head_literal(ptr noundef readonly captures(ret: address, provenance) %0, i32 noundef range(i32 0, 2) %1) unnamed_addr #14 {
  br label %tailrecurse

tailrecurse:                                      ; preds = %tailrecurse.backedge, %2
  %.tr = phi ptr [ %0, %2 ], [ %.tr.be, %tailrecurse.backedge ]
  %3 = load i32, ptr %.tr, align 8, !tbaa !20
  switch i32 %3, label %.loopexit [
    i32 6, label %37
    i32 5, label %34
    i32 4, label %27
    i32 2, label %4
    i32 1, label %9
    i32 7, label %tailrecurse.backedge
    i32 0, label %11
  ]

4:                                                ; preds = %tailrecurse
  %5 = getelementptr inbounds nuw i8, ptr %.tr, i64 16
  %6 = load i32, ptr %5, align 8, !tbaa !20
  %7 = icmp ne i32 %6, -1
  %8 = icmp eq i32 %1, 0
  %or.cond = and i1 %8, %7
  br i1 %or.cond, label %10, label %.loopexit

9:                                                ; preds = %tailrecurse
  %.old1 = icmp eq i32 %1, 0
  br i1 %.old1, label %10, label %.loopexit

10:                                               ; preds = %4, %9
  br label %.loopexit

tailrecurse.backedge:                             ; preds = %37, %34, %31, %tailrecurse
  %.tr.be.in = getelementptr inbounds nuw i8, ptr %.tr, i64 16
  %.tr.be = load ptr, ptr %.tr.be.in, align 8, !tbaa !20
  br label %tailrecurse

11:                                               ; preds = %tailrecurse
  %12 = getelementptr inbounds nuw i8, ptr %.tr, i64 24
  %13 = load ptr, ptr %12, align 8, !tbaa !117
  %14 = getelementptr inbounds nuw i8, ptr %.tr, i64 16
  %15 = load ptr, ptr %14, align 8, !tbaa !115
  %.not = icmp ugt ptr %13, %15
  br i1 %.not, label %16, label %.loopexit

16:                                               ; preds = %11
  %17 = icmp eq i32 %1, 0
  br i1 %17, label %26, label %18

18:                                               ; preds = %16
  %19 = getelementptr inbounds nuw i8, ptr %.tr, i64 4
  %20 = load i32, ptr %19, align 4, !tbaa !20
  %21 = and i32 %20, 2097152
  %.not33 = icmp eq i32 %21, 0
  br i1 %.not33, label %26, label %22

22:                                               ; preds = %18
  %23 = getelementptr inbounds nuw i8, ptr %.tr, i64 32
  %24 = load i32, ptr %23, align 8, !tbaa !20
  %25 = and i32 %24, 1
  %.not34 = icmp eq i32 %25, 0
  br i1 %.not34, label %.loopexit, label %26

26:                                               ; preds = %22, %18, %16
  br label %.loopexit

27:                                               ; preds = %tailrecurse
  %28 = getelementptr inbounds nuw i8, ptr %.tr, i64 24
  %29 = load i32, ptr %28, align 8, !tbaa !143
  %30 = icmp sgt i32 %29, 0
  br i1 %30, label %31, label %.loopexit

31:                                               ; preds = %27
  %32 = getelementptr inbounds nuw i8, ptr %.tr, i64 40
  %33 = load ptr, ptr %32, align 8, !tbaa !146
  %.not35 = icmp eq ptr %33, null
  br i1 %.not35, label %tailrecurse.backedge, label %.loopexit

34:                                               ; preds = %tailrecurse
  %35 = getelementptr inbounds nuw i8, ptr %.tr, i64 24
  %36 = load i32, ptr %35, align 8, !tbaa !98
  %switch = icmp ult i32 %36, 3
  br i1 %switch, label %tailrecurse.backedge, label %.loopexit

37:                                               ; preds = %tailrecurse
  %38 = getelementptr inbounds nuw i8, ptr %.tr, i64 24
  %39 = load i32, ptr %38, align 8, !tbaa !20
  %40 = icmp eq i32 %39, 1
  br i1 %40, label %tailrecurse.backedge, label %.loopexit

.loopexit:                                        ; preds = %34, %27, %31, %tailrecurse, %37, %11, %26, %22, %9, %10, %4
  %.0 = phi ptr [ %.tr, %10 ], [ null, %9 ], [ null, %4 ], [ null, %11 ], [ %.tr, %26 ], [ null, %22 ], [ null, %34 ], [ %33, %31 ], [ null, %27 ], [ null, %37 ], [ null, %tailrecurse ]
  ret ptr %.0
}